target datalayout = "e-m:e-p270:32:32-p271:32:32-p272:64:64-i64:64-i128:128-f80:128-n8:16:32:64-S128"
target triple = "x86_64-pc-linux-gnu"

%struct.evp_pkey_st = type { i32, i32, ptr, ptr, ptr, %union.legacy_pkey_st, %union.legacy_pkey_st, %struct.CRYPTO_REF_COUNT, ptr, ptr, i32, i8, %struct.crypto_ex_data_st, ptr, ptr, i64, ptr, i64, %struct.anon }
%union.legacy_pkey_st = type { ptr }
%struct.CRYPTO_REF_COUNT = type { i32 }
%struct.crypto_ex_data_st = type { ptr, ptr }
%struct.anon = type { i32, i32, i32 }

@.str = private unnamed_addr constant [30 x i8] c"../openssl/crypto/evp/p_lib.c\00", align 1
@__func__.EVP_PKEY_set1_engine = private unnamed_addr constant [21 x i8] c"EVP_PKEY_set1_engine\00", align 1

; Function Attrs: nounwind uwtable
define i32 @EVP_PKEY_set1_engine(ptr noundef %0, ptr noundef %1) #0 {
  %3 = alloca i32, align 4
  %4 = alloca ptr, align 8
  %5 = alloca ptr, align 8
  store ptr %0, ptr %4, align 8, !tbaa !3
  store ptr %1, ptr %5, align 8, !tbaa !69
  %6 = load ptr, ptr %5, align 8, !tbaa !69
  %7 = icmp ne ptr %6, null
  br i1 %7, label %8, label %24

8:                                                ; preds = %2
  %9 = load ptr, ptr %5, align 8, !tbaa !69
  %10 = call i32 @ENGINE_init(ptr noundef %9)
  %11 = icmp ne i32 %10, 0
  br i1 %11, label %13, label %12

12:                                               ; preds = %8
  call void @ERR_new()
  call void @ERR_set_debug(ptr noundef @.str, i32 noundef 733, ptr noundef @__func__.EVP_PKEY_set1_engine)
  call void (i32, i32, ptr, ...) @ERR_set_error(i32 noundef 6, i32 noundef 524326, ptr noundef null)
  store i32 0, ptr %3, align 4
  br label %32

13:                                               ; preds = %8
  %14 = load ptr, ptr %5, align 8, !tbaa !69
  %15 = load ptr, ptr %4, align 8, !tbaa !3
  %16 = getelementptr inbounds nuw %struct.evp_pkey_st, ptr %15, i32 0, i32 0
  %17 = load i32, ptr %16, align 8, !tbaa !29
  %18 = call ptr @ENGINE_get_pkey_meth(ptr noundef %14, i32 noundef %17)
  %19 = icmp eq ptr %18, null
  br i1 %19, label %20, label %23

20:                                               ; preds = %13
  %21 = load ptr, ptr %5, align 8, !tbaa !69
  %22 = call i32 @ENGINE_finish(ptr noundef %21)
  call void @ERR_new()
  call void @ERR_set_debug(ptr noundef @.str, i32 noundef 738, ptr noundef @__func__.EVP_PKEY_set1_engine)
  call void (i32, i32, ptr, ...) @ERR_set_error(i32 noundef 6, i32 noundef 156, ptr noundef null)
  store i32 0, ptr %3, align 4
  br label %32

23:                                               ; preds = %13
  br label %24

24:                                               ; preds = %23, %2
  %25 = load ptr, ptr %4, align 8, !tbaa !3
  %26 = getelementptr inbounds nuw %struct.evp_pkey_st, ptr %25, i32 0, i32 4
  %27 = load ptr, ptr %26, align 8, !tbaa !93
  %28 = call i32 @ENGINE_finish(ptr noundef %27)
  %29 = load ptr, ptr %5, align 8, !tbaa !69
  %30 = load ptr, ptr %4, align 8, !tbaa !3
  %31 = getelementptr inbounds nuw %struct.evp_pkey_st, ptr %30, i32 0, i32 4
  store ptr %29, ptr %31, align 8, !tbaa !93
  store i32 1, ptr %3, align 4
  br label %32

32:                                               ; preds = %24, %20, %12
  %33 = load i32, ptr %3, align 4
  ret i32 %33
}