; Function Attrs: nounwind uwtable
define range(i32 0, 2) i32 @EVP_PKEY_set1_engine(ptr noundef captures(none) %0, ptr noundef %1) local_unnamed_addr #0 {
  %.not = icmp eq ptr %1, null
  br i1 %.not, label %12, label %3

3:                                                ; preds = %2
  %4 = tail call i32 @ENGINE_init(ptr noundef nonnull %1) #12
  %.not9 = icmp eq i32 %4, 0
  br i1 %.not9, label %5, label %6

5:                                                ; preds = %3
  tail call void @ERR_new() #12
  tail call void @ERR_set_debug(ptr noundef nonnull @.str, i32 noundef 733, ptr noundef nonnull @__func__.EVP_PKEY_set1_engine) #12
  tail call void (i32, i32, ptr, ...) @ERR_set_error(i32 noundef 6, i32 noundef 524326, ptr noundef null) #12
  br label %16

6:                                                ; preds = %3
  %7 = load i32, ptr %0, align 8, !tbaa !26
  %8 = tail call ptr @ENGINE_get_pkey_meth(ptr noundef nonnull %1, i32 noundef %7) #12
  %9 = icmp eq ptr %8, null
  br i1 %9, label %10, label %12

10:                                               ; preds = %6
  %11 = tail call i32 @ENGINE_finish(ptr noundef nonnull %1) #12
  tail call void @ERR_new() #12
  tail call void @ERR_set_debug(ptr noundef nonnull @.str, i32 noundef 738, ptr noundef nonnull @__func__.EVP_PKEY_set1_engine) #12
  tail call void (i32, i32, ptr, ...) @ERR_set_error(i32 noundef 6, i32 noundef 156, ptr noundef null) #12
  br label %16

12:                                               ; preds = %6, %2
  %13 = getelementptr inbounds nuw i8, ptr %0, i64 24
  %14 = load ptr, ptr %13, align 8, !tbaa !79
  %15 = tail call i32 @ENGINE_finish(ptr noundef %14) #12
  store ptr %1, ptr %13, align 8, !tbaa !79
  br label %16

16:                                               ; preds = %12, %10, %5
  %.0 = phi i32 [ 0, %10 ], [ 1, %12 ], [ 0, %5 ]
  ret i32 %.0
}